ccopy_reg
_reconstructor
p0
(cgoogle.oauth2.credentials
Credentials
p1
c__builtin__
object
p2
Ntp3
Rp4
(dp5
S'_token_uri'
p6
Vhttps://oauth2.googleapis.com/token
p7
sS'_client_secret'
p8
VzDXkRrdr4GMU8HXy0vZqRu4J
p9
sS'_id_token'
p10
NsS'token'
p11
Vya29.GltjB4L1y7V7OZ5owNhuZPQHkU5lK3pXMqNB4mlCBhgUQZPYvbkTPdZ6NeP12-50Ef74TLmsPFwrH54MkikGgSytGT2urorpZ96XZr5ZwGOTlICWGgw_6wVgp6iW
p12
sS'_refresh_token'
p13
V1/9NHZikbgUZYJTJoy-YkJdnPzEIGFYQzcR8YCY3w_t3Q
p14
sS'_scopes'
p15
(lp16
S'https://www.googleapis.com/auth/calendar.readonly'
p17
asS'_client_id'
p18
V222476058477-6403mq1toan226mpu9kq9n6sbu130165.apps.googleusercontent.com
p19
sS'expiry'
p20
cdatetime
datetime
p21
(S'\x07\xe3\x08\r\x06\x078\x00\x17\x97'
p22
tp23
Rp24
sb.